target datalayout = "e-m:e-p270:32:32-p271:32:32-p272:64:64-i64:64-i128:128-f80:128-n8:16:32:64-S128"
target triple = "x86_64-pc-linux-gnu"

%struct._Save_errno = type { i32 }

@_ZTISt16invalid_argument = external constant ptr
@.str.158 = private unnamed_addr constant [5 x i8] c"stoi\00", align 1

; Function Attrs: mustprogress nounwind uwtable
define linkonce_odr dso_local noundef zeroext i1 @_ZZN9__gnu_cxx6__stoaIlicJiEEET0_PFT_PKT1_PPS3_DpT2_EPKcS5_PmS9_EN10_Range_chk6_S_chkElSt17integral_constantIbLb1EE(i64 noundef %0) #6 comdat align 2 {
  %2 = alloca i64, align 8
  store i64 %0, ptr %2, align 8
  %3 = load i64, ptr %2, align 8
  %4 = icmp slt i64 %3, -2147483648
  br i1 %4, label %8, label %5

5:                                                ; preds = %1
  %6 = load i64, ptr %2, align 8
  %7 = icmp sgt i64 %6, 2147483647
  br label %8

8:                                                ; preds = %5, %1
  %9 = phi i1 [ true, %1 ], [ %7, %5 ]
  ret i1 %9
}

; Function Attrs: mustprogress nounwind uwtable
define linkonce_odr dso_local void @_ZZN9__gnu_cxx6__stoaIlicJiEEET0_PFT_PKT1_PPS3_DpT2_EPKcS5_PmS9_EN11_Save_errnoD2Ev(ptr noundef nonnull align 4 dereferenceable(4) %0) unnamed_addr #6 comdat align 2 {
  %2 = alloca ptr, align 8
  store ptr %0, ptr %2, align 8
  %3 = load ptr, ptr %2, align 8
  %4 = call ptr @__errno_location() #19
  %5 = load i32, ptr %4, align 4
  %6 = icmp eq i32 %5, 0
  br i1 %6, label %7, label %11

7:                                                ; preds = %1
  %8 = getelementptr inbounds %struct._Save_errno, ptr %3, i32 0, i32 0
  %9 = load i32, ptr %8, align 4
  %10 = call ptr @__errno_location() #19
  store i32 %9, ptr %10, align 4
  br label %11

11:                                               ; preds = %7, %1
  ret void
}

; Function Attrs: mustprogress nounwind uwtable
define linkonce_odr dso_local void @_ZZN9__gnu_cxx6__stoaIlicJiEEET0_PFT_PKT1_PPS3_DpT2_EPKcS5_PmS9_EN11_Save_errnoC2Ev(ptr noundef nonnull align 4 dereferenceable(4) %0) unnamed_addr #6 comdat align 2 {
  %2 = alloca ptr, align 8
  store ptr %0, ptr %2, align 8
  %3 = load ptr, ptr %2, align 8
  %4 = getelementptr inbounds %struct._Save_errno, ptr %3, i32 0, i32 0
  %5 = call ptr @__errno_location() #19
  %6 = load i32, ptr %5, align 4
  store i32 %6, ptr %4, align 4
  %7 = call ptr @__errno_location() #19
  store i32 0, ptr %7, align 4
  ret void
}

; Function Attrs: mustprogress uwtable
define linkonce_odr dso_local noundef i32 @_ZN9__gnu_cxx6__stoaIlicJiEEET0_PFT_PKT1_PPS3_DpT2_EPKcS5_PmS9_(ptr noundef %0, ptr noundef %1, ptr noundef %2, ptr noundef %3, i32 noundef %4) #4 comdat personality ptr @__gxx_personality_v0 {
  %6 = alloca ptr, align 8
  %7 = alloca ptr, align 8
  %8 = alloca ptr, align 8
  %9 = alloca ptr, align 8
  %10 = alloca i32, align 4
  %11 = alloca i32, align 4
  %12 = alloca ptr, align 8
  %13 = alloca %struct._Save_errno, align 4
  %14 = alloca i64, align 8
  %15 = alloca ptr, align 8
  %16 = alloca i32, align 4
  store ptr %0, ptr %6, align 8
  store ptr %1, ptr %7, align 8
  store ptr %2, ptr %8, align 8
  store ptr %3, ptr %9, align 8
  store i32 %4, ptr %10, align 4
  call void @_ZZN9__gnu_cxx6__stoaIlicJiEEET0_PFT_PKT1_PPS3_DpT2_EPKcS5_PmS9_EN11_Save_errnoC2Ev(ptr noundef nonnull align 4 dereferenceable(4) %13)
  %17 = load ptr, ptr %6, align 8
  %18 = load ptr, ptr %8, align 8
  %19 = load i32, ptr %10, align 4
  %20 = invoke noundef i64 %17(ptr noundef %18, ptr noundef %12, i32 noundef %19)
          to label %21 unwind label %28

21:                                               ; preds = %5
  store i64 %20, ptr %14, align 8
  %22 = load ptr, ptr %12, align 8
  %23 = load ptr, ptr %8, align 8
  %24 = icmp eq ptr %22, %23
  br i1 %24, label %25, label %32

25:                                               ; preds = %21
  %26 = load ptr, ptr %7, align 8
  invoke void @_ZSt24__throw_invalid_argumentPKc(ptr noundef %26) #15
          to label %27 unwind label %28

27:                                               ; preds = %25
  unreachable

28:                                               ; preds = %42, %36, %25, %5
  %29 = landingpad { ptr, i32 }
          cleanup
  %30 = extractvalue { ptr, i32 } %29, 0
  store ptr %30, ptr %15, align 8
  %31 = extractvalue { ptr, i32 } %29, 1
  store i32 %31, ptr %16, align 4
  call void @_ZZN9__gnu_cxx6__stoaIlicJiEEET0_PFT_PKT1_PPS3_DpT2_EPKcS5_PmS9_EN11_Save_errnoD2Ev(ptr noundef nonnull align 4 dereferenceable(4) %13) #3
  br label %61

32:                                               ; preds = %21
  %33 = call ptr @__errno_location() #19
  %34 = load i32, ptr %33, align 4
  %35 = icmp eq i32 %34, 34
  br i1 %35, label %40, label %36

36:                                               ; preds = %32
  %37 = load i64, ptr %14, align 8
  %38 = invoke noundef zeroext i1 @_ZZN9__gnu_cxx6__stoaIlicJiEEET0_PFT_PKT1_PPS3_DpT2_EPKcS5_PmS9_EN10_Range_chk6_S_chkElSt17integral_constantIbLb1EE(i64 noundef %37)
          to label %39 unwind label %28

39:                                               ; preds = %36
  br label %40

40:                                               ; preds = %39, %32
  %41 = phi i1 [ true, %32 ], [ %38, %39 ]
  br i1 %41, label %42, label %45

42:                                               ; preds = %40
  %43 = load ptr, ptr %7, align 8
  invoke void @_ZSt20__throw_out_of_rangePKc(ptr noundef %43) #15
          to label %44 unwind label %28

44:                                               ; preds = %42
  unreachable

45:                                               ; preds = %40
  %46 = load i64, ptr %14, align 8
  %47 = trunc i64 %46 to i32
  store i32 %47, ptr %11, align 4
  br label %48

48:                                               ; preds = %45
  br label %49

49:                                               ; preds = %48
  %50 = load ptr, ptr %9, align 8
  %51 = icmp ne ptr %50, null
  br i1 %51, label %52, label %59

52:                                               ; preds = %49
  %53 = load ptr, ptr %12, align 8
  %54 = load ptr, ptr %8, align 8
  %55 = ptrtoint ptr %53 to i64
  %56 = ptrtoint ptr %54 to i64
  %57 = sub i64 %55, %56
  %58 = load ptr, ptr %9, align 8
  store i64 %57, ptr %58, align 8
  br label %59

59:                                               ; preds = %52, %49
  %60 = load i32, ptr %11, align 4
  call void @_ZZN9__gnu_cxx6__stoaIlicJiEEET0_PFT_PKT1_PPS3_DpT2_EPKcS5_PmS9_EN11_Save_errnoD2Ev(ptr noundef nonnull align 4 dereferenceable(4) %13) #3
  ret i32 %60

61:                                               ; preds = %28
  %62 = load ptr, ptr %15, align 8
  %63 = load i32, ptr %16, align 4
  %64 = insertvalue { ptr, i32 } poison, ptr %62, 0
  %65 = insertvalue { ptr, i32 } %64, i32 %63, 1
  resume { ptr, i32 } %65
}

; Function Attrs: mustprogress uwtable
define linkonce_odr dso_local noundef i32 @_ZNSt7__cxx114stoiERKNS_12basic_stringIcSt11char_traitsIcESaIcEEEPmi(ptr noundef nonnull align 8 dereferenceable(32) %0, ptr noundef %1, i32 noundef %2) #4 comdat {
  %4 = alloca ptr, align 8
  %5 = alloca ptr, align 8
  %6 = alloca i32, align 4
  store ptr %0, ptr %4, align 8
  store ptr %1, ptr %5, align 8
  store i32 %2, ptr %6, align 4
  %7 = load ptr, ptr %4, align 8
  %8 = call noundef ptr @_ZNKSt7__cxx1112basic_stringIcSt11char_traitsIcESaIcEE5c_strEv(ptr noundef nonnull align 8 dereferenceable(32) %7) #3
  %9 = load ptr, ptr %5, align 8
  %10 = load i32, ptr %6, align 4
  %11 = call noundef i32 @_ZN9__gnu_cxx6__stoaIlicJiEEET0_PFT_PKT1_PPS3_DpT2_EPKcS5_PmS9_(ptr noundef @strtol, ptr noundef @.str.158, ptr noundef %8, ptr noundef %9, i32 noundef %10)
  ret i32 %11
}

; Function Attrs: mustprogress uwtable
define internal noundef i32 @_ZN12_GLOBAL__N_18ParseStdERKNSt7__cxx1112basic_stringIcSt11char_traitsIcESaIcEEE(ptr noundef nonnull align 8 dereferenceable(32) %0) #4 personality ptr @__gxx_personality_v0 {
  %2 = alloca i32, align 4
  %3 = alloca ptr, align 8
  %4 = alloca ptr, align 8
  %5 = alloca i32, align 4
  %6 = alloca ptr, align 8
  store ptr %0, ptr %3, align 8
  %7 = load ptr, ptr %3, align 8
  %8 = invoke noundef i32 @_ZNSt7__cxx114stoiERKNS_12basic_stringIcSt11char_traitsIcESaIcEEEPmi(ptr noundef nonnull align 8 dereferenceable(32) %7, ptr noundef null, i32 noundef 10)
          to label %9 unwind label %10

9:                                                ; preds = %1
  store i32 %8, ptr %2, align 4
  br label %22

10:                                               ; preds = %1
  %11 = landingpad { ptr, i32 }
          catch ptr @_ZTISt16invalid_argument
  %12 = extractvalue { ptr, i32 } %11, 0
  store ptr %12, ptr %4, align 8
  %13 = extractvalue { ptr, i32 } %11, 1
  store i32 %13, ptr %5, align 4
  br label %14

14:                                               ; preds = %10
  %15 = load i32, ptr %5, align 4
  %16 = call i32 @llvm.eh.typeid.for(ptr @_ZTISt16invalid_argument) #3
  %17 = icmp eq i32 %15, %16
  br i1 %17, label %18, label %24

18:                                               ; preds = %14
  %19 = load ptr, ptr %4, align 8
  %20 = call ptr @__cxa_begin_catch(ptr %19) #3
  store ptr %20, ptr %6, align 8
  call void @__cxa_end_catch()
  br label %21

21:                                               ; preds = %18
  store i32 -1, ptr %2, align 4
  br label %22

22:                                               ; preds = %21, %9
  %23 = load i32, ptr %2, align 4
  ret i32 %23

24:                                               ; preds = %14
  %25 = load ptr, ptr %4, align 8
  %26 = load i32, ptr %5, align 4
  %27 = insertvalue { ptr, i32 } poison, ptr %25, 0
  %28 = insertvalue { ptr, i32 } %27, i32 %26, 1
  resume { ptr, i32 } %28
}