; Function Attrs: mustprogress uwtable
define internal fastcc noundef i32 @_ZN12_GLOBAL__N_18ParseStdERKNSt7__cxx1112basic_stringIcSt11char_traitsIcESaIcEEE(ptr noundef nonnull align 8 dereferenceable(32) %0) unnamed_addr #4 personality ptr @__gxx_personality_v0 {
  %2 = alloca ptr, align 8
  %3 = tail call noundef ptr @_ZNKSt7__cxx1112basic_stringIcSt11char_traitsIcESaIcEE5c_strEv(ptr noundef nonnull align 8 dereferenceable(32) %0) #20
  call void @llvm.lifetime.start.p0(i64 8, ptr nonnull %2)
  %4 = tail call ptr @__errno_location() #25
  %5 = load i32, ptr %4, align 4
  store i32 0, ptr %4, align 4
  %6 = call noundef i64 @strtol(ptr noundef %3, ptr noundef nonnull %2, i32 noundef 10)
  %7 = load ptr, ptr %2, align 8
  %8 = icmp eq ptr %7, %3
  br i1 %8, label %9, label %16

9:                                                ; preds = %1
  invoke void @_ZSt24__throw_invalid_argumentPKc(ptr noundef nonnull @.str.158) #22
          to label %10 unwind label %11

10:                                               ; preds = %9
  unreachable

11:                                               ; preds = %.critedge.i.i, %9
  %12 = landingpad { ptr, i32 }
          cleanup
          catch ptr @_ZTISt16invalid_argument
  %13 = load i32, ptr %4, align 4
  %14 = icmp eq i32 %13, 0
  br i1 %14, label %15, label %.body

15:                                               ; preds = %11
  store i32 %5, ptr %4, align 4
  br label %.body

16:                                               ; preds = %1
  %17 = load i32, ptr %4, align 4
  %18 = icmp eq i32 %17, 34
  %19 = add i64 %6, -2147483648
  %20 = icmp ult i64 %19, -4294967296
  %or.cond.i.i = or i1 %20, %18
  br i1 %or.cond.i.i, label %.critedge.i.i, label %22

.critedge.i.i:                                    ; preds = %16
  invoke void @_ZSt20__throw_out_of_rangePKc(ptr noundef nonnull @.str.158) #22
          to label %21 unwind label %11

21:                                               ; preds = %.critedge.i.i
  unreachable

22:                                               ; preds = %16
  %23 = icmp eq i32 %17, 0
  br i1 %23, label %24, label %_ZNSt7__cxx114stoiERKNS_12basic_stringIcSt11char_traitsIcESaIcEEEPmi.exit

24:                                               ; preds = %22
  store i32 %5, ptr %4, align 4
  br label %_ZNSt7__cxx114stoiERKNS_12basic_stringIcSt11char_traitsIcESaIcEEEPmi.exit

_ZNSt7__cxx114stoiERKNS_12basic_stringIcSt11char_traitsIcESaIcEEEPmi.exit: ; preds = %22, %24
  %25 = trunc i64 %6 to i32
  call void @llvm.lifetime.end.p0(i64 8, ptr nonnull %2)
  br label %32

.body:                                            ; preds = %11, %15
  %26 = extractvalue { ptr, i32 } %12, 1
  %27 = tail call i32 @llvm.eh.typeid.for.p0(ptr nonnull @_ZTISt16invalid_argument) #20
  %28 = icmp eq i32 %26, %27
  br i1 %28, label %29, label %33

29:                                               ; preds = %.body
  %30 = extractvalue { ptr, i32 } %12, 0
  %31 = tail call ptr @__cxa_begin_catch(ptr %30) #20
  tail call void @__cxa_end_catch()
  br label %32

32:                                               ; preds = %_ZNSt7__cxx114stoiERKNS_12basic_stringIcSt11char_traitsIcESaIcEEEPmi.exit, %29
  %.0 = phi i32 [ -1, %29 ], [ %25, %_ZNSt7__cxx114stoiERKNS_12basic_stringIcSt11char_traitsIcESaIcEEEPmi.exit ]
  ret i32 %.0

33:                                               ; preds = %.body
  resume { ptr, i32 } %12
}